target datalayout = "e-m:e-p270:32:32-p271:32:32-p272:64:64-i64:64-i128:128-f80:128-n8:16:32:64-S128"
target triple = "x86_64-pc-linux-gnu"

%struct.H5FD_multi_t = type { %struct.H5FD_t, %struct.H5FD_multi_fapl_t, [7 x i64], [7 x ptr], [7 x i64], i32, ptr }
%struct.H5FD_t = type { i64, ptr, i64, i32, i64, i64, i64, i64, i64, i8 }
%struct.H5FD_multi_fapl_t = type { [7 x i32], [7 x i64], [7 x ptr], [7 x i64], i8 }
%union.anon.9 = type { ptr }
%union.anon.10 = type { ptr }

@.str.1 = private unnamed_addr constant [103 x i8] c"generated/home/dtcxzyw/WorkSpace/Projects/compilers/llvm-opt-benchmark/bench/hdf5/hdf5/src/H5FDmulti.c\00", align 1
@H5_libinit_g = external global i8, align 1
@H5_libterm_g = external global i8, align 1
@H5E_ERR_CLS_g = external global i64, align 8
@H5E_VFL_g = external global i64, align 8
@__func__.H5FD_multi_lock = private unnamed_addr constant [16 x i8] c"H5FD_multi_lock\00", align 1
@H5E_CANTLOCKFILE_g = external global i64, align 8
@.str.44 = private unnamed_addr constant [27 x i8] c"error locking member files\00", align 1

; Function Attrs: nounwind uwtable
define internal i32 @H5FD_multi_lock(ptr noundef %0, i1 noundef zeroext %1) #0 {
  %3 = alloca i32, align 4
  %4 = alloca ptr, align 8
  %5 = alloca i8, align 1
  %6 = alloca ptr, align 8
  %7 = alloca i32, align 4
  %8 = alloca i32, align 4
  %9 = alloca i32, align 4
  %10 = alloca i32, align 4
  %11 = alloca %union.anon.9, align 8
  %12 = alloca ptr, align 8
  %13 = alloca i32, align 4
  %14 = alloca i32, align 4
  %15 = alloca i32, align 4
  %16 = alloca %union.anon.10, align 8
  %17 = alloca ptr, align 8
  store ptr %0, ptr %4, align 8, !tbaa !3
  %18 = zext i1 %1 to i8
  store i8 %18, ptr %5, align 1, !tbaa !22
  call void @llvm.lifetime.start.p0(i64 8, ptr %6) #9
  %19 = load ptr, ptr %4, align 8, !tbaa !3
  store ptr %19, ptr %6, align 8, !tbaa !8
  call void @llvm.lifetime.start.p0(i64 4, ptr %7) #9
  store i32 0, ptr %7, align 4, !tbaa !10
  call void @llvm.lifetime.start.p0(i64 4, ptr %8) #9
  store i32 0, ptr %8, align 4, !tbaa !10
  %20 = call i32 @H5Eclear2(i64 noundef 0)
  call void @llvm.lifetime.start.p0(i64 4, ptr %9) #9
  store i32 0, ptr %9, align 4, !tbaa !10
  br label %21

21:                                               ; preds = %73, %2
  %22 = load i32, ptr %9, align 4, !tbaa !10
  %23 = icmp slt i32 %22, 7
  br i1 %23, label %24, label %76

24:                                               ; preds = %21
  %25 = load i32, ptr %9, align 4, !tbaa !10
  store i32 %25, ptr %8, align 4, !tbaa !10
  %26 = load ptr, ptr %6, align 8, !tbaa !8
  %27 = getelementptr inbounds nuw %struct.H5FD_multi_t, ptr %26, i32 0, i32 3
  %28 = load i32, ptr %9, align 4, !tbaa !10
  %29 = sext i32 %28 to i64
  %30 = getelementptr inbounds [7 x ptr], ptr %27, i64 0, i64 %29
  %31 = load ptr, ptr %30, align 8, !tbaa !3
  %32 = icmp ne ptr %31, null
  br i1 %32, label %33, label %72

33:                                               ; preds = %24
  call void @llvm.lifetime.start.p0(i64 4, ptr %10) #9
  call void @llvm.lifetime.start.p0(i64 8, ptr %11) #9
  call void @llvm.lifetime.start.p0(i64 8, ptr %12) #9
  %34 = call i32 @H5Eauto_is_v2(i64 noundef 0, ptr noundef %10)
  %35 = load i32, ptr %10, align 4, !tbaa !10
  %36 = icmp ne i32 %35, 0
  br i1 %36, label %37, label %40

37:                                               ; preds = %33
  %38 = call i32 @H5Eget_auto2(i64 noundef 0, ptr noundef %11, ptr noundef %12)
  %39 = call i32 @H5Eset_auto2(i64 noundef 0, ptr noundef null, ptr noundef null)
  br label %43

40:                                               ; preds = %33
  %41 = call i32 @H5Eget_auto1(ptr noundef %11, ptr noundef %12)
  %42 = call i32 @H5Eset_auto1(ptr noundef null, ptr noundef null)
  br label %43

43:                                               ; preds = %40, %37
  %44 = load ptr, ptr %6, align 8, !tbaa !8
  %45 = getelementptr inbounds nuw %struct.H5FD_multi_t, ptr %44, i32 0, i32 3
  %46 = load i32, ptr %9, align 4, !tbaa !10
  %47 = sext i32 %46 to i64
  %48 = getelementptr inbounds [7 x ptr], ptr %45, i64 0, i64 %47
  %49 = load ptr, ptr %48, align 8, !tbaa !3
  %50 = load i8, ptr %5, align 1, !tbaa !22, !range !24, !noundef !25
  %51 = trunc i8 %50 to i1
  %52 = call i32 @H5FDlock(ptr noundef %49, i1 noundef zeroext %51)
  %53 = icmp slt i32 %52, 0
  br i1 %53, label %54, label %57

54:                                               ; preds = %43
  %55 = load i32, ptr %7, align 4, !tbaa !10
  %56 = add nsw i32 %55, 1
  store i32 %56, ptr %7, align 4, !tbaa !10
  store i32 2, ptr %13, align 4
  br label %69

57:                                               ; preds = %43
  %58 = load i32, ptr %10, align 4, !tbaa !10
  %59 = icmp ne i32 %58, 0
  br i1 %59, label %60, label %64

60:                                               ; preds = %57
  %61 = load ptr, ptr %11, align 8, !tbaa !19
  %62 = load ptr, ptr %12, align 8, !tbaa !40
  %63 = call i32 @H5Eset_auto2(i64 noundef 0, ptr noundef %61, ptr noundef %62)
  br label %68

64:                                               ; preds = %57
  %65 = load ptr, ptr %11, align 8, !tbaa !19
  %66 = load ptr, ptr %12, align 8, !tbaa !40
  %67 = call i32 @H5Eset_auto1(ptr noundef %65, ptr noundef %66)
  br label %68

68:                                               ; preds = %64, %60
  store i32 0, ptr %13, align 4
  br label %69

69:                                               ; preds = %68, %54
  call void @llvm.lifetime.end.p0(i64 8, ptr %12) #9
  call void @llvm.lifetime.end.p0(i64 8, ptr %11) #9
  call void @llvm.lifetime.end.p0(i64 4, ptr %10) #9
  %70 = load i32, ptr %13, align 4
  switch i32 %70, label %190 [
    i32 0, label %71
    i32 2, label %76
  ]

71:                                               ; preds = %69
  br label %72

72:                                               ; preds = %71, %24
  br label %73

73:                                               ; preds = %72
  %74 = load i32, ptr %9, align 4, !tbaa !10
  %75 = add nsw i32 %74, 1
  store i32 %75, ptr %9, align 4, !tbaa !10
  br label %21, !llvm.loop !68

76:                                               ; preds = %69, %21
  call void @llvm.lifetime.end.p0(i64 4, ptr %9) #9
  %77 = load i32, ptr %7, align 4, !tbaa !10
  %78 = icmp ne i32 %77, 0
  br i1 %78, label %79, label %122

79:                                               ; preds = %76
  call void @llvm.lifetime.start.p0(i64 4, ptr %14) #9
  store i32 0, ptr %14, align 4, !tbaa !10
  br label %80

80:                                               ; preds = %118, %79
  %81 = load i32, ptr %14, align 4, !tbaa !10
  %82 = load i32, ptr %8, align 4, !tbaa !10
  %83 = icmp slt i32 %81, %82
  br i1 %83, label %84, label %121

84:                                               ; preds = %80
  call void @llvm.lifetime.start.p0(i64 4, ptr %15) #9
  call void @llvm.lifetime.start.p0(i64 8, ptr %16) #9
  call void @llvm.lifetime.start.p0(i64 8, ptr %17) #9
  %85 = call i32 @H5Eauto_is_v2(i64 noundef 0, ptr noundef %15)
  %86 = load i32, ptr %15, align 4, !tbaa !10
  %87 = icmp ne i32 %86, 0
  br i1 %87, label %88, label %91

88:                                               ; preds = %84
  %89 = call i32 @H5Eget_auto2(i64 noundef 0, ptr noundef %16, ptr noundef %17)
  %90 = call i32 @H5Eset_auto2(i64 noundef 0, ptr noundef null, ptr noundef null)
  br label %94

91:                                               ; preds = %84
  %92 = call i32 @H5Eget_auto1(ptr noundef %16, ptr noundef %17)
  %93 = call i32 @H5Eset_auto1(ptr noundef null, ptr noundef null)
  br label %94

94:                                               ; preds = %91, %88
  %95 = load ptr, ptr %6, align 8, !tbaa !8
  %96 = getelementptr inbounds nuw %struct.H5FD_multi_t, ptr %95, i32 0, i32 3
  %97 = load i32, ptr %14, align 4, !tbaa !10
  %98 = sext i32 %97 to i64
  %99 = getelementptr inbounds [7 x ptr], ptr %96, i64 0, i64 %98
  %100 = load ptr, ptr %99, align 8, !tbaa !3
  %101 = call i32 @H5FDunlock(ptr noundef %100)
  %102 = icmp slt i32 %101, 0
  br i1 %102, label %103, label %106

103:                                              ; preds = %94
  %104 = load i32, ptr %7, align 4, !tbaa !10
  %105 = add nsw i32 %104, 1
  store i32 %105, ptr %7, align 4, !tbaa !10
  br label %106

106:                                              ; preds = %103, %94
  %107 = load i32, ptr %15, align 4, !tbaa !10
  %108 = icmp ne i32 %107, 0
  br i1 %108, label %109, label %113

109:                                              ; preds = %106
  %110 = load ptr, ptr %16, align 8, !tbaa !19
  %111 = load ptr, ptr %17, align 8, !tbaa !40
  %112 = call i32 @H5Eset_auto2(i64 noundef 0, ptr noundef %110, ptr noundef %111)
  br label %117

113:                                              ; preds = %106
  %114 = load ptr, ptr %16, align 8, !tbaa !19
  %115 = load ptr, ptr %17, align 8, !tbaa !40
  %116 = call i32 @H5Eset_auto1(ptr noundef %114, ptr noundef %115)
  br label %117

117:                                              ; preds = %113, %109
  call void @llvm.lifetime.end.p0(i64 8, ptr %17) #9
  call void @llvm.lifetime.end.p0(i64 8, ptr %16) #9
  call void @llvm.lifetime.end.p0(i64 4, ptr %15) #9
  br label %118

118:                                              ; preds = %117
  %119 = load i32, ptr %14, align 4, !tbaa !10
  %120 = add nsw i32 %119, 1
  store i32 %120, ptr %14, align 4, !tbaa !10
  br label %80, !llvm.loop !69

121:                                              ; preds = %80
  call void @llvm.lifetime.end.p0(i64 4, ptr %14) #9
  br label %122

122:                                              ; preds = %121, %76
  %123 = load i32, ptr %7, align 4, !tbaa !10
  %124 = icmp ne i32 %123, 0
  br i1 %124, label %125, label %187

125:                                              ; preds = %122
  br label %126

126:                                              ; preds = %125
  %127 = load i8, ptr @H5_libinit_g, align 1, !tbaa !22, !range !24, !noundef !25
  %128 = trunc i8 %127 to i1
  br i1 %128, label %133, label %129

129:                                              ; preds = %126
  %130 = load i8, ptr @H5_libterm_g, align 1, !tbaa !22, !range !24, !noundef !25
  %131 = trunc i8 %130 to i1
  %132 = xor i1 %131, true
  br label %133

133:                                              ; preds = %129, %126
  %134 = phi i1 [ false, %126 ], [ %132, %129 ]
  %135 = xor i1 %134, true
  %136 = xor i1 %135, true
  %137 = zext i1 %136 to i32
  %138 = sext i32 %137 to i64
  %139 = call i64 @llvm.expect.i64(i64 %138, i64 0)
  %140 = icmp ne i64 %139, 0
  br i1 %140, label %141, label %143

141:                                              ; preds = %133
  %142 = call i32 @H5open()
  br label %144

143:                                              ; preds = %133
  br label %144

144:                                              ; preds = %143, %141
  %145 = load i64, ptr @H5E_ERR_CLS_g, align 8, !tbaa !12
  %146 = load i8, ptr @H5_libinit_g, align 1, !tbaa !22, !range !24, !noundef !25
  %147 = trunc i8 %146 to i1
  br i1 %147, label %152, label %148

148:                                              ; preds = %144
  %149 = load i8, ptr @H5_libterm_g, align 1, !tbaa !22, !range !24, !noundef !25
  %150 = trunc i8 %149 to i1
  %151 = xor i1 %150, true
  br label %152

152:                                              ; preds = %148, %144
  %153 = phi i1 [ false, %144 ], [ %151, %148 ]
  %154 = xor i1 %153, true
  %155 = xor i1 %154, true
  %156 = zext i1 %155 to i32
  %157 = sext i32 %156 to i64
  %158 = call i64 @llvm.expect.i64(i64 %157, i64 0)
  %159 = icmp ne i64 %158, 0
  br i1 %159, label %160, label %162

160:                                              ; preds = %152
  %161 = call i32 @H5open()
  br label %163

162:                                              ; preds = %152
  br label %163

163:                                              ; preds = %162, %160
  %164 = load i64, ptr @H5E_VFL_g, align 8, !tbaa !12
  %165 = load i8, ptr @H5_libinit_g, align 1, !tbaa !22, !range !24, !noundef !25
  %166 = trunc i8 %165 to i1
  br i1 %166, label %171, label %167

167:                                              ; preds = %163
  %168 = load i8, ptr @H5_libterm_g, align 1, !tbaa !22, !range !24, !noundef !25
  %169 = trunc i8 %168 to i1
  %170 = xor i1 %169, true
  br label %171

171:                                              ; preds = %167, %163
  %172 = phi i1 [ false, %163 ], [ %170, %167 ]
  %173 = xor i1 %172, true
  %174 = xor i1 %173, true
  %175 = zext i1 %174 to i32
  %176 = sext i32 %175 to i64
  %177 = call i64 @llvm.expect.i64(i64 %176, i64 0)
  %178 = icmp ne i64 %177, 0
  br i1 %178, label %179, label %181

179:                                              ; preds = %171
  %180 = call i32 @H5open()
  br label %182

181:                                              ; preds = %171
  br label %182

182:                                              ; preds = %181, %179
  %183 = load i64, ptr @H5E_CANTLOCKFILE_g, align 8, !tbaa !12
  %184 = call i32 (i64, ptr, ptr, i32, i64, i64, i64, ptr, ...) @H5Epush2(i64 noundef 0, ptr noundef @.str.1, ptr noundef @__func__.H5FD_multi_lock, i32 noundef 1810, i64 noundef %145, i64 noundef %164, i64 noundef %183, ptr noundef @.str.44)
  store i32 -1, ptr %3, align 4
  store i32 1, ptr %13, align 4
  br label %188

185:                                              ; No predecessors!
  br label %186

186:                                              ; preds = %185
  br label %187

187:                                              ; preds = %186, %122
  store i32 0, ptr %3, align 4
  store i32 1, ptr %13, align 4
  br label %188

188:                                              ; preds = %187, %182
  call void @llvm.lifetime.end.p0(i64 4, ptr %8) #9
  call void @llvm.lifetime.end.p0(i64 4, ptr %7) #9
  call void @llvm.lifetime.end.p0(i64 8, ptr %6) #9
  %189 = load i32, ptr %3, align 4
  ret i32 %189

190:                                              ; preds = %69
  unreachable
}