; Function Attrs: nounwind uwtable
define internal range(i32 -1, 1) i32 @H5FD_multi_lock(ptr noundef readonly captures(none) %0, i1 noundef zeroext %1) #0 {
  %3 = alloca i32, align 4
  %4 = alloca %union.anon.9, align 8
  %5 = alloca ptr, align 8
  %6 = alloca i32, align 4
  %7 = alloca %union.anon.10, align 8
  %8 = alloca ptr, align 8
  %9 = tail call i32 @H5Eclear2(i64 noundef 0) #15
  %10 = getelementptr inbounds nuw i8, ptr %0, i64 344
  br label %11

11:                                               ; preds = %2, %35
  %indvars.iv48 = phi i32 [ 0, %2 ], [ %indvars.iv.next49, %35 ]
  %indvars.iv = phi i64 [ 0, %2 ], [ %indvars.iv.next, %35 ]
  %12 = getelementptr inbounds nuw [7 x ptr], ptr %10, i64 0, i64 %indvars.iv
  %13 = load ptr, ptr %12, align 8, !tbaa !15
  %.not = icmp eq ptr %13, null
  br i1 %.not, label %35, label %14

14:                                               ; preds = %11
  call void @llvm.lifetime.start.p0(i64 4, ptr nonnull %3) #15
  call void @llvm.lifetime.start.p0(i64 8, ptr nonnull %4) #15
  call void @llvm.lifetime.start.p0(i64 8, ptr nonnull %5) #15
  %15 = call i32 @H5Eauto_is_v2(i64 noundef 0, ptr noundef nonnull %3) #15
  %16 = load i32, ptr %3, align 4, !tbaa !3
  %.not25 = icmp eq i32 %16, 0
  br i1 %.not25, label %20, label %17

17:                                               ; preds = %14
  %18 = call i32 @H5Eget_auto2(i64 noundef 0, ptr noundef nonnull %4, ptr noundef nonnull %5) #15
  %19 = call i32 @H5Eset_auto2(i64 noundef 0, ptr noundef null, ptr noundef null) #15
  br label %23

20:                                               ; preds = %14
  %21 = call i32 @H5Eget_auto1(ptr noundef nonnull %4, ptr noundef nonnull %5) #15
  %22 = call i32 @H5Eset_auto1(ptr noundef null, ptr noundef null) #15
  br label %23

23:                                               ; preds = %20, %17
  %24 = load ptr, ptr %12, align 8, !tbaa !15
  %25 = call i32 @H5FDlock(ptr noundef %24, i1 noundef zeroext %1) #15
  %26 = icmp slt i32 %25, 0
  br i1 %26, label %36, label %27

27:                                               ; preds = %23
  %28 = load i32, ptr %3, align 4, !tbaa !3
  %.not26 = icmp eq i32 %28, 0
  %29 = load ptr, ptr %4, align 8, !tbaa !13
  %30 = load ptr, ptr %5, align 8, !tbaa !39
  br i1 %.not26, label %33, label %31

31:                                               ; preds = %27
  %32 = call i32 @H5Eset_auto2(i64 noundef 0, ptr noundef %29, ptr noundef %30) #15
  br label %.thread

33:                                               ; preds = %27
  %34 = call i32 @H5Eset_auto1(ptr noundef %29, ptr noundef %30) #15
  br label %.thread

.thread:                                          ; preds = %33, %31
  call void @llvm.lifetime.end.p0(i64 8, ptr nonnull %5) #15
  call void @llvm.lifetime.end.p0(i64 8, ptr nonnull %4) #15
  call void @llvm.lifetime.end.p0(i64 4, ptr nonnull %3) #15
  br label %35

35:                                               ; preds = %.thread, %11
  %indvars.iv.next = add nuw nsw i64 %indvars.iv, 1
  %exitcond.not = icmp eq i64 %indvars.iv.next, 7
  %indvars.iv.next49 = add nuw nsw i32 %indvars.iv48, 1
  br i1 %exitcond.not, label %.critedge, label %11, !llvm.loop !62

36:                                               ; preds = %23
  call void @llvm.lifetime.end.p0(i64 8, ptr nonnull %5) #15
  call void @llvm.lifetime.end.p0(i64 8, ptr nonnull %4) #15
  call void @llvm.lifetime.end.p0(i64 4, ptr nonnull %3) #15
  %.not42 = icmp eq i64 %indvars.iv, 0
  br i1 %.not42, label %._crit_edge.thread, label %.lr.ph

.lr.ph:                                           ; preds = %36
  %wide.trip.count = zext nneg i32 %indvars.iv48 to i64
  br label %37

37:                                               ; preds = %.lr.ph, %58
  %indvars.iv45 = phi i64 [ 0, %.lr.ph ], [ %indvars.iv.next46, %58 ]
  %.540 = phi i32 [ 1, %.lr.ph ], [ %spec.select, %58 ]
  call void @llvm.lifetime.start.p0(i64 4, ptr nonnull %6) #15
  call void @llvm.lifetime.start.p0(i64 8, ptr nonnull %7) #15
  call void @llvm.lifetime.start.p0(i64 8, ptr nonnull %8) #15
  %38 = call i32 @H5Eauto_is_v2(i64 noundef 0, ptr noundef nonnull %6) #15
  %39 = load i32, ptr %6, align 4, !tbaa !3
  %.not29 = icmp eq i32 %39, 0
  br i1 %.not29, label %43, label %40

40:                                               ; preds = %37
  %41 = call i32 @H5Eget_auto2(i64 noundef 0, ptr noundef nonnull %7, ptr noundef nonnull %8) #15
  %42 = call i32 @H5Eset_auto2(i64 noundef 0, ptr noundef null, ptr noundef null) #15
  br label %46

43:                                               ; preds = %37
  %44 = call i32 @H5Eget_auto1(ptr noundef nonnull %7, ptr noundef nonnull %8) #15
  %45 = call i32 @H5Eset_auto1(ptr noundef null, ptr noundef null) #15
  br label %46

46:                                               ; preds = %43, %40
  %47 = getelementptr inbounds nuw [7 x ptr], ptr %10, i64 0, i64 %indvars.iv45
  %48 = load ptr, ptr %47, align 8, !tbaa !15
  %49 = call i32 @H5FDunlock(ptr noundef %48) #15
  %50 = lshr i32 %49, 31
  %spec.select = add i32 %50, %.540
  %51 = load i32, ptr %6, align 4, !tbaa !3
  %.not30 = icmp eq i32 %51, 0
  %52 = load ptr, ptr %7, align 8, !tbaa !13
  %53 = load ptr, ptr %8, align 8, !tbaa !39
  br i1 %.not30, label %56, label %54

54:                                               ; preds = %46
  %55 = call i32 @H5Eset_auto2(i64 noundef 0, ptr noundef %52, ptr noundef %53) #15
  br label %58

56:                                               ; preds = %46
  %57 = call i32 @H5Eset_auto1(ptr noundef %52, ptr noundef %53) #15
  br label %58

58:                                               ; preds = %56, %54
  call void @llvm.lifetime.end.p0(i64 8, ptr nonnull %8) #15
  call void @llvm.lifetime.end.p0(i64 8, ptr nonnull %7) #15
  call void @llvm.lifetime.end.p0(i64 4, ptr nonnull %6) #15
  %indvars.iv.next46 = add nuw nsw i64 %indvars.iv45, 1
  %exitcond51.not = icmp eq i64 %indvars.iv.next46, %wide.trip.count
  br i1 %exitcond51.not, label %._crit_edge, label %37, !llvm.loop !63

._crit_edge:                                      ; preds = %58
  %59 = icmp eq i32 %spec.select, 0
  br i1 %59, label %.critedge, label %._crit_edge.thread

._crit_edge.thread:                               ; preds = %36, %._crit_edge
  %60 = load i8, ptr @H5_libinit_g, align 1, !tbaa !18, !range !20, !noundef !21
  %61 = trunc nuw i8 %60 to i1
  %62 = load i8, ptr @H5_libterm_g, align 1, !range !20
  %63 = trunc nuw i8 %62 to i1
  %64 = select i1 %61, i1 true, i1 %63
  br i1 %64, label %67, label %65, !prof !22

65:                                               ; preds = %._crit_edge.thread
  %66 = call i32 @H5open() #15
  %.pre = load i8, ptr @H5_libinit_g, align 1, !tbaa !18, !range !20
  %.pre52 = load i8, ptr @H5_libterm_g, align 1, !range !20
  br label %67

67:                                               ; preds = %._crit_edge.thread, %65
  %68 = phi i8 [ %62, %._crit_edge.thread ], [ %.pre52, %65 ]
  %69 = phi i8 [ %60, %._crit_edge.thread ], [ %.pre, %65 ]
  %70 = load i64, ptr @H5E_ERR_CLS_g, align 8, !tbaa !23
  %71 = trunc nuw i8 %69 to i1
  %72 = trunc nuw i8 %68 to i1
  %73 = select i1 %71, i1 true, i1 %72
  br i1 %73, label %76, label %74, !prof !22

74:                                               ; preds = %67
  %75 = call i32 @H5open() #15
  %.pre53 = load i8, ptr @H5_libinit_g, align 1, !tbaa !18, !range !20
  %.pre54 = load i8, ptr @H5_libterm_g, align 1, !range !20
  br label %76

76:                                               ; preds = %67, %74
  %77 = phi i8 [ %68, %67 ], [ %.pre54, %74 ]
  %78 = phi i8 [ %69, %67 ], [ %.pre53, %74 ]
  %79 = load i64, ptr @H5E_VFL_g, align 8, !tbaa !23
  %80 = trunc nuw i8 %78 to i1
  %81 = trunc nuw i8 %77 to i1
  %82 = select i1 %80, i1 true, i1 %81
  br i1 %82, label %85, label %83, !prof !22

83:                                               ; preds = %76
  %84 = call i32 @H5open() #15
  br label %85

85:                                               ; preds = %76, %83
  %86 = load i64, ptr @H5E_CANTLOCKFILE_g, align 8, !tbaa !23
  %87 = call i32 (i64, ptr, ptr, i32, i64, i64, i64, ptr, ...) @H5Epush2(i64 noundef 0, ptr noundef nonnull @.str.1, ptr noundef nonnull @__func__.H5FD_multi_lock, i32 noundef 1810, i64 noundef %70, i64 noundef %79, i64 noundef %86, ptr noundef nonnull @.str.44) #15
  br label %.critedge

.critedge:                                        ; preds = %35, %._crit_edge, %85
  %.024 = phi i32 [ -1, %85 ], [ 0, %._crit_edge ], [ 0, %35 ]
  ret i32 %.024
}